; Function Attrs: mustprogress nofree nounwind memory(write, argmem: readwrite) uwtable
define hidden void @_ZNK19OpenColorIO_v2_5dev15AntiLogRenderer5applyEPKvPvl(ptr noundef nonnull readonly align 8 captures(none) dereferenceable(12) %0, ptr noundef readonly captures(none) %1, ptr noundef captures(none) %2, i64 noundef %3) unnamed_addr #11 align 2 {
  %5 = icmp sgt i64 %3, 0
  br i1 %5, label %.lr.ph, label %._crit_edge

.lr.ph:                                           ; preds = %4
  %6 = getelementptr inbounds nuw i8, ptr %0, i64 8
  br label %7

._crit_edge:                                      ; preds = %7, %4
  ret void

7:                                                ; preds = %.lr.ph, %7
  %.018 = phi ptr [ %1, %.lr.ph ], [ %23, %7 ]
  %.01417 = phi i64 [ 0, %.lr.ph ], [ %25, %7 ]
  %.01516 = phi ptr [ %2, %.lr.ph ], [ %24, %7 ]
  %8 = getelementptr inbounds nuw i8, ptr %.018, i64 12
  %9 = load float, ptr %8, align 4, !tbaa !111
  tail call void @llvm.memcpy.p0.p0.i64(ptr noundef nonnull align 4 dereferenceable(16) %.01516, ptr noundef nonnull align 4 dereferenceable(16) %.018, i64 16, i1 false)
  %10 = load float, ptr %6, align 8, !tbaa !64
  %11 = load float, ptr %.01516, align 4, !tbaa !111
  %12 = fmul float %10, %11
  %13 = getelementptr inbounds nuw i8, ptr %.01516, i64 4
  %14 = load float, ptr %13, align 4, !tbaa !111
  %15 = fmul float %10, %14
  %16 = getelementptr inbounds nuw i8, ptr %.01516, i64 8
  %17 = load float, ptr %16, align 4, !tbaa !111
  %18 = fmul float %10, %17
  %19 = tail call noundef float @exp2f(float noundef %12) #26, !tbaa !112
  store float %19, ptr %.01516, align 4, !tbaa !111
  %20 = tail call noundef float @exp2f(float noundef %15) #26, !tbaa !112
  store float %20, ptr %13, align 4, !tbaa !111
  %21 = tail call noundef float @exp2f(float noundef %18) #26, !tbaa !112
  store float %21, ptr %16, align 4, !tbaa !111
  %22 = getelementptr inbounds nuw i8, ptr %.01516, i64 12
  store float %9, ptr %22, align 4, !tbaa !111
  %23 = getelementptr inbounds nuw i8, ptr %.018, i64 16
  %24 = getelementptr inbounds nuw i8, ptr %.01516, i64 16
  %25 = add nuw nsw i64 %.01417, 1
  %exitcond.not = icmp eq i64 %25, %3
  br i1 %exitcond.not, label %._crit_edge, label %7, !llvm.loop !117
}